target datalayout = "e-m:e-p270:32:32-p271:32:32-p272:64:64-i64:64-i128:128-f80:128-n8:16:32:64-S128"
target triple = "x86_64-pc-linux-gnu"

%struct.LLVMIntrinsics = type { i32, i32, i32, i32, i32, i32, i32, i32, i32, i32, i32, i32, i32, i32, i32, i32, i32, i32, i32, i32, i32, i32, i32, i32, i32, i32, i32, i32, i32, i32, i32, i32, i32, i32, i32, i32, i32, i32, i32, i32, i32, i32, i32, i32, i32, i32, i32, i32, i32, i32, i32, i32, i32, i32, i32, i32, i32, i32, i32, i32, i32, i32, i32, i32, i32, i32, i32, i32, i32, i32, i32, i32, i32, i32, i32, i32, i32, i32, i32, i32, i32, i32, i32, i32, i32, i32, i32, i32, i32, i32, i32, i32, i32, i32 }
%struct.BuildTarget = type { i32, ptr, ptr, ptr, ptr, ptr, ptr, ptr, ptr, ptr, ptr, ptr, ptr, ptr, ptr, ptr, ptr, ptr, ptr, i8, i8, i8, i8, i8, i8, i8, i8, i8, i8, i8, i8, i8, i8, i8, i8, i8, i8, i8, i8, i32, i32, i32, i32, i32, i32, i32, i32, i32, i32, i32, i32, i32, i32, i32, i32, i32, i32, ptr, ptr, ptr, ptr, ptr, ptr, ptr, ptr, ptr, ptr, %struct.anon.104, %struct.anon.105, %struct.anon.106, %struct.anon.107 }
%struct.anon.104 = type { i16, i32, i32, i32 }
%struct.anon.105 = type { ptr, ptr, ptr, ptr }
%struct.anon.106 = type { ptr, ptr, i32, i8 }
%struct.anon.107 = type { ptr, ptr }
%struct.BEValue = type { i8, i32, ptr, ptr, ptr }
%struct.GenContext_ = type { i8, ptr, ptr, ptr, ptr, ptr, ptr, ptr, ptr, ptr, ptr, ptr, ptr, ptr, ptr, ptr, ptr, ptr, ptr, ptr, ptr, ptr, ptr, ptr, ptr, ptr, ptr, ptr, ptr, ptr, ptr, ptr, ptr, %struct.anon.85, i32, i32, %struct.DebugContext, ptr, ptr, ptr, %struct.BEValue, i8, %union.SourceSpan, ptr, ptr, ptr, ptr }
%struct.anon.85 = type { ptr, ptr, ptr }
%struct.DebugContext = type { i16, ptr, ptr, %struct.DebugFile_, ptr, ptr, ptr, ptr }
%struct.DebugFile_ = type { i16, ptr }
%union.SourceSpan = type { i64 }
%struct.Type_ = type { i32, ptr, ptr, ptr, %union.anon.97, ptr, ptr, %union.anon.99 }
%union.anon.97 = type { ptr }
%union.anon.99 = type { %struct.TypeFunction }
%struct.TypeFunction = type { ptr, ptr, ptr }

@intrinsic_id = external global %struct.LLVMIntrinsics, align 4
@.str.3 = private unnamed_addr constant [1 x i8] zeroinitializer, align 1
@type_usz = external global ptr, align 8
@active_target = external global %struct.BuildTarget, align 8
@.str.202 = private unnamed_addr constant [32 x i8] c"Integer multiplication overflow\00", align 1
@.str.203 = private unnamed_addr constant [4 x i8] c"mul\00", align 1

; Function Attrs: nounwind uwtable
define dso_local ptr @llvm_emit_call_intrinsic(ptr noundef %0, i32 noundef %1, ptr noundef %2, i32 noundef %3, ptr noundef %4, i32 noundef %5) #0 {
  %7 = alloca ptr, align 8
  %8 = alloca i32, align 4
  %9 = alloca ptr, align 8
  %10 = alloca i32, align 4
  %11 = alloca ptr, align 8
  %12 = alloca i32, align 4
  %13 = alloca ptr, align 8
  %14 = alloca ptr, align 8
  store ptr %0, ptr %7, align 8
  store i32 %1, ptr %8, align 4
  store ptr %2, ptr %9, align 8
  store i32 %3, ptr %10, align 4
  store ptr %4, ptr %11, align 8
  store i32 %5, ptr %12, align 4
  %15 = load ptr, ptr %7, align 8
  %16 = getelementptr inbounds %struct.GenContext_, ptr %15, i32 0, i32 1
  %17 = load ptr, ptr %16, align 8
  %18 = load i32, ptr %8, align 4
  %19 = load ptr, ptr %9, align 8
  %20 = load i32, ptr %10, align 4
  %21 = zext i32 %20 to i64
  %22 = call ptr @LLVMGetIntrinsicDeclaration(ptr noundef %17, i32 noundef %18, ptr noundef %19, i64 noundef %21)
  store ptr %22, ptr %13, align 8
  %23 = load ptr, ptr %7, align 8
  %24 = getelementptr inbounds %struct.GenContext_, ptr %23, i32 0, i32 5
  %25 = load ptr, ptr %24, align 8
  %26 = load i32, ptr %8, align 4
  %27 = load ptr, ptr %9, align 8
  %28 = load i32, ptr %10, align 4
  %29 = zext i32 %28 to i64
  %30 = call ptr @LLVMIntrinsicGetType(ptr noundef %25, i32 noundef %26, ptr noundef %27, i64 noundef %29)
  store ptr %30, ptr %14, align 8
  %31 = load ptr, ptr %7, align 8
  %32 = getelementptr inbounds %struct.GenContext_, ptr %31, i32 0, i32 8
  %33 = load ptr, ptr %32, align 8
  %34 = load ptr, ptr %14, align 8
  %35 = load ptr, ptr %13, align 8
  %36 = load ptr, ptr %11, align 8
  %37 = load i32, ptr %12, align 4
  %38 = call ptr @LLVMBuildCall2(ptr noundef %33, ptr noundef %34, ptr noundef %35, ptr noundef %36, i32 noundef %37, ptr noundef @.str.3)
  ret ptr %38
}

; Function Attrs: nounwind uwtable
define internal ptr @llvm_emit_mult_int(ptr noundef %0, ptr noundef %1, ptr noundef %2, ptr noundef %3, i64 %4) #0 {
  %6 = alloca ptr, align 8
  %7 = alloca i32, align 4
  %8 = alloca ptr, align 8
  %9 = alloca i32, align 4
  %10 = alloca ptr, align 8
  %11 = alloca i32, align 4
  %12 = alloca ptr, align 8
  %13 = alloca ptr, align 8
  %14 = alloca i64, align 8
  %15 = alloca ptr, align 8
  %16 = alloca ptr, align 8
  %17 = alloca i64, align 8
  %18 = alloca ptr, align 8
  %19 = alloca ptr, align 8
  %20 = alloca ptr, align 8
  %21 = alloca i32, align 4
  %22 = alloca ptr, align 8
  %23 = alloca ptr, align 8
  %24 = alloca ptr, align 8
  %25 = alloca i32, align 4
  %26 = alloca ptr, align 8
  %27 = alloca %union.SourceSpan, align 8
  %28 = alloca ptr, align 8
  %29 = alloca ptr, align 8
  %30 = alloca ptr, align 8
  %31 = alloca ptr, align 8
  %32 = alloca ptr, align 8
  %33 = alloca [2 x ptr], align 16
  %34 = alloca [2 x ptr], align 16
  %35 = alloca i32, align 4
  %36 = alloca ptr, align 8
  %37 = alloca ptr, align 8
  %38 = alloca ptr, align 8
  %39 = getelementptr inbounds %union.SourceSpan, ptr %27, i32 0, i32 0
  store i64 %4, ptr %39, align 8
  store ptr %0, ptr %28, align 8
  store ptr %1, ptr %29, align 8
  store ptr %2, ptr %30, align 8
  store ptr %3, ptr %31, align 8
  %40 = load i16, ptr getelementptr inbounds (%struct.BuildTarget, ptr @active_target, i32 0, i32 67), align 8
  %41 = lshr i16 %40, 14
  %42 = and i16 %41, 1
  %43 = trunc i16 %42 to i1
  br i1 %43, label %44, label %192

44:                                               ; preds = %5
  %45 = load ptr, ptr %28, align 8
  %46 = load ptr, ptr %29, align 8
  %47 = call ptr @llvm_get_type(ptr noundef %45, ptr noundef %46)
  store ptr %47, ptr %32, align 8
  %48 = getelementptr inbounds [2 x ptr], ptr %33, i64 0, i64 0
  %49 = load ptr, ptr %30, align 8
  store ptr %49, ptr %48, align 8
  %50 = getelementptr inbounds ptr, ptr %48, i64 1
  %51 = load ptr, ptr %31, align 8
  store ptr %51, ptr %50, align 8
  %52 = getelementptr inbounds [2 x ptr], ptr %34, i64 0, i64 0
  %53 = load ptr, ptr %32, align 8
  store ptr %53, ptr %52, align 8
  %54 = getelementptr inbounds ptr, ptr %52, i64 1
  %55 = load ptr, ptr %32, align 8
  store ptr %55, ptr %54, align 8
  %56 = load ptr, ptr %29, align 8
  store ptr %56, ptr %6, align 8
  %57 = load ptr, ptr %6, align 8
  %58 = load i32, ptr %57, align 8
  store i32 %58, ptr %7, align 4
  %59 = load i32, ptr %7, align 4
  %60 = icmp eq i32 %59, 31
  br i1 %60, label %61, label %66

61:                                               ; preds = %44
  %62 = load ptr, ptr %6, align 8
  %63 = getelementptr inbounds %struct.Type_, ptr %62, i32 0, i32 1
  %64 = load ptr, ptr %63, align 8
  %65 = load i32, ptr %64, align 8
  store i32 %65, ptr %7, align 4
  br label %66

66:                                               ; preds = %61, %44
  %67 = load i32, ptr %7, align 4
  %68 = icmp uge i32 %67, 8
  br i1 %68, label %69, label %72

69:                                               ; preds = %66
  %70 = load i32, ptr %7, align 4
  %71 = icmp ule i32 %70, 12
  br label %72

72:                                               ; preds = %69, %66
  %73 = phi i1 [ false, %66 ], [ %71, %69 ]
  br i1 %73, label %74, label %76

74:                                               ; preds = %72
  %75 = load i32, ptr getelementptr inbounds (%struct.LLVMIntrinsics, ptr @intrinsic_id, i32 0, i32 74), align 4
  br label %78

76:                                               ; preds = %72
  %77 = load i32, ptr getelementptr inbounds (%struct.LLVMIntrinsics, ptr @intrinsic_id, i32 0, i32 63), align 4
  br label %78

78:                                               ; preds = %76, %74
  %79 = phi i32 [ %75, %74 ], [ %77, %76 ]
  store i32 %79, ptr %35, align 4
  %80 = load ptr, ptr %28, align 8
  %81 = load i32, ptr %35, align 4
  %82 = getelementptr inbounds [2 x ptr], ptr %34, i64 0, i64 0
  %83 = getelementptr inbounds [2 x ptr], ptr %33, i64 0, i64 0
  %84 = call ptr @llvm_emit_call_intrinsic(ptr noundef %80, i32 noundef %81, ptr noundef %82, i32 noundef 1, ptr noundef %83, i32 noundef 2)
  store ptr %84, ptr %36, align 8
  %85 = load ptr, ptr %28, align 8
  %86 = load ptr, ptr %36, align 8
  store ptr %85, ptr %19, align 8
  store ptr %86, ptr %20, align 8
  store i32 0, ptr %21, align 4
  %87 = load ptr, ptr %20, align 8
  %88 = call ptr @LLVMTypeOf(ptr noundef %87) #8
  %89 = call i32 @LLVMGetTypeKind(ptr noundef %88) #8
  %90 = icmp eq i32 %89, 13
  br i1 %90, label %91, label %127

91:                                               ; preds = %78
  %92 = load ptr, ptr %19, align 8
  %93 = getelementptr inbounds %struct.GenContext_, ptr %92, i32 0, i32 8
  %94 = load ptr, ptr %93, align 8
  %95 = load ptr, ptr %20, align 8
  %96 = load ptr, ptr %19, align 8
  %97 = load ptr, ptr @type_usz, align 8
  %98 = load i32, ptr %21, align 4
  %99 = zext i32 %98 to i64
  store ptr %96, ptr %15, align 8
  store ptr %97, ptr %16, align 8
  store i64 %99, ptr %17, align 8
  %100 = load ptr, ptr %16, align 8
  %101 = call ptr @type_lowering(ptr noundef %100)
  store ptr %101, ptr %16, align 8
  %102 = load ptr, ptr %15, align 8
  %103 = load ptr, ptr %16, align 8
  %104 = call ptr @llvm_get_type(ptr noundef %102, ptr noundef %103) #8
  %105 = load i64, ptr %17, align 8
  %106 = load ptr, ptr %16, align 8
  store ptr %106, ptr %8, align 8
  %107 = load ptr, ptr %8, align 8
  %108 = load i32, ptr %107, align 8
  store i32 %108, ptr %9, align 4
  %109 = load i32, ptr %9, align 4
  %110 = icmp eq i32 %109, 31
  br i1 %110, label %111, label %116

111:                                              ; preds = %91
  %112 = load ptr, ptr %8, align 8
  %113 = getelementptr inbounds %struct.Type_, ptr %112, i32 0, i32 1
  %114 = load ptr, ptr %113, align 8
  %115 = load i32, ptr %114, align 8
  store i32 %115, ptr %9, align 4
  br label %116

116:                                              ; preds = %111, %91
  %117 = load i32, ptr %9, align 4
  %118 = icmp uge i32 %117, 3
  br i1 %118, label %119, label %122

119:                                              ; preds = %116
  %120 = load i32, ptr %9, align 4
  %121 = icmp ule i32 %120, 7
  br label %122

122:                                              ; preds = %119, %116
  %123 = phi i1 [ false, %116 ], [ %121, %119 ]
  %124 = zext i1 %123 to i32
  %125 = call ptr @LLVMConstInt(ptr noundef %104, i64 noundef %105, i32 noundef %124) #8
  %126 = call ptr @LLVMBuildExtractElement(ptr noundef %94, ptr noundef %95, ptr noundef %125, ptr noundef @.str.3) #8
  store ptr %126, ptr %18, align 8
  br label %134

127:                                              ; preds = %78
  %128 = load ptr, ptr %19, align 8
  %129 = getelementptr inbounds %struct.GenContext_, ptr %128, i32 0, i32 8
  %130 = load ptr, ptr %129, align 8
  %131 = load ptr, ptr %20, align 8
  %132 = load i32, ptr %21, align 4
  %133 = call ptr @LLVMBuildExtractValue(ptr noundef %130, ptr noundef %131, i32 noundef %132, ptr noundef @.str.3) #8
  store ptr %133, ptr %18, align 8
  br label %134

134:                                              ; preds = %127, %122
  %135 = load ptr, ptr %18, align 8
  store ptr %135, ptr %37, align 8
  %136 = load ptr, ptr %28, align 8
  %137 = load ptr, ptr %36, align 8
  store ptr %136, ptr %23, align 8
  store ptr %137, ptr %24, align 8
  store i32 1, ptr %25, align 4
  %138 = load ptr, ptr %24, align 8
  %139 = call ptr @LLVMTypeOf(ptr noundef %138) #8
  %140 = call i32 @LLVMGetTypeKind(ptr noundef %139) #8
  %141 = icmp eq i32 %140, 13
  br i1 %141, label %142, label %178

142:                                              ; preds = %134
  %143 = load ptr, ptr %23, align 8
  %144 = getelementptr inbounds %struct.GenContext_, ptr %143, i32 0, i32 8
  %145 = load ptr, ptr %144, align 8
  %146 = load ptr, ptr %24, align 8
  %147 = load ptr, ptr %23, align 8
  %148 = load ptr, ptr @type_usz, align 8
  %149 = load i32, ptr %25, align 4
  %150 = zext i32 %149 to i64
  store ptr %147, ptr %12, align 8
  store ptr %148, ptr %13, align 8
  store i64 %150, ptr %14, align 8
  %151 = load ptr, ptr %13, align 8
  %152 = call ptr @type_lowering(ptr noundef %151)
  store ptr %152, ptr %13, align 8
  %153 = load ptr, ptr %12, align 8
  %154 = load ptr, ptr %13, align 8
  %155 = call ptr @llvm_get_type(ptr noundef %153, ptr noundef %154) #8
  %156 = load i64, ptr %14, align 8
  %157 = load ptr, ptr %13, align 8
  store ptr %157, ptr %10, align 8
  %158 = load ptr, ptr %10, align 8
  %159 = load i32, ptr %158, align 8
  store i32 %159, ptr %11, align 4
  %160 = load i32, ptr %11, align 4
  %161 = icmp eq i32 %160, 31
  br i1 %161, label %162, label %167

162:                                              ; preds = %142
  %163 = load ptr, ptr %10, align 8
  %164 = getelementptr inbounds %struct.Type_, ptr %163, i32 0, i32 1
  %165 = load ptr, ptr %164, align 8
  %166 = load i32, ptr %165, align 8
  store i32 %166, ptr %11, align 4
  br label %167

167:                                              ; preds = %162, %142
  %168 = load i32, ptr %11, align 4
  %169 = icmp uge i32 %168, 3
  br i1 %169, label %170, label %173

170:                                              ; preds = %167
  %171 = load i32, ptr %11, align 4
  %172 = icmp ule i32 %171, 7
  br label %173

173:                                              ; preds = %170, %167
  %174 = phi i1 [ false, %167 ], [ %172, %170 ]
  %175 = zext i1 %174 to i32
  %176 = call ptr @LLVMConstInt(ptr noundef %155, i64 noundef %156, i32 noundef %175) #8
  %177 = call ptr @LLVMBuildExtractElement(ptr noundef %145, ptr noundef %146, ptr noundef %176, ptr noundef @.str.3) #8
  store ptr %177, ptr %22, align 8
  br label %185

178:                                              ; preds = %134
  %179 = load ptr, ptr %23, align 8
  %180 = getelementptr inbounds %struct.GenContext_, ptr %179, i32 0, i32 8
  %181 = load ptr, ptr %180, align 8
  %182 = load ptr, ptr %24, align 8
  %183 = load i32, ptr %25, align 4
  %184 = call ptr @LLVMBuildExtractValue(ptr noundef %181, ptr noundef %182, i32 noundef %183, ptr noundef @.str.3) #8
  store ptr %184, ptr %22, align 8
  br label %185

185:                                              ; preds = %178, %173
  %186 = load ptr, ptr %22, align 8
  store ptr %186, ptr %38, align 8
  %187 = load ptr, ptr %28, align 8
  %188 = load ptr, ptr %38, align 8
  %189 = getelementptr inbounds %union.SourceSpan, ptr %27, i32 0, i32 0
  %190 = load i64, ptr %189, align 8
  call void @llvm_emit_panic_on_true(ptr noundef %187, ptr noundef %188, ptr noundef @.str.202, i64 %190, ptr noundef null, ptr noundef null, ptr noundef null)
  %191 = load ptr, ptr %37, align 8
  store ptr %191, ptr %26, align 8
  br label %199

192:                                              ; preds = %5
  %193 = load ptr, ptr %28, align 8
  %194 = getelementptr inbounds %struct.GenContext_, ptr %193, i32 0, i32 8
  %195 = load ptr, ptr %194, align 8
  %196 = load ptr, ptr %30, align 8
  %197 = load ptr, ptr %31, align 8
  %198 = call ptr @LLVMBuildMul(ptr noundef %195, ptr noundef %196, ptr noundef %197, ptr noundef @.str.203)
  store ptr %198, ptr %26, align 8
  br label %199

199:                                              ; preds = %192, %185
  %200 = load ptr, ptr %26, align 8
  ret ptr %200
}