; Function Attrs: nounwind uwtable
define internal fastcc ptr @llvm_emit_mult_int(ptr noundef %0, ptr noundef %1, ptr noundef %2, ptr noundef %3, i64 %4) unnamed_addr #0 {
  %6 = alloca [2 x ptr], align 16
  %7 = alloca [2 x ptr], align 16
  %8 = load i16, ptr getelementptr inbounds (%struct.BuildTarget, ptr @active_target, i64 0, i32 67), align 8
  %9 = and i16 %8, 16384
  %.not = icmp eq i16 %9, 0
  br i1 %.not, label %81, label %10

10:                                               ; preds = %5
  %11 = tail call ptr @llvm_get_type(ptr noundef %0, ptr noundef %1) #10
  store ptr %2, ptr %6, align 16
  %12 = getelementptr inbounds i8, ptr %6, i64 8
  store ptr %3, ptr %12, align 8
  store ptr %11, ptr %7, align 16
  %13 = getelementptr inbounds i8, ptr %7, i64 8
  store ptr %11, ptr %13, align 8
  %14 = load i32, ptr %1, align 8
  %15 = icmp eq i32 %14, 31
  br i1 %15, label %16, label %20

16:                                               ; preds = %10
  %17 = getelementptr inbounds i8, ptr %1, i64 8
  %18 = load ptr, ptr %17, align 8
  %19 = load i32, ptr %18, align 8
  br label %20

20:                                               ; preds = %16, %10
  %.0 = phi i32 [ %19, %16 ], [ %14, %10 ]
  %21 = add i32 %.0, -8
  %22 = icmp ult i32 %21, 5
  %23 = load i32, ptr getelementptr inbounds (%struct.LLVMIntrinsics, ptr @intrinsic_id, i64 0, i32 74), align 4
  %24 = load i32, ptr getelementptr inbounds (%struct.LLVMIntrinsics, ptr @intrinsic_id, i64 0, i32 63), align 4
  %25 = select i1 %22, i32 %23, i32 %24
  %26 = getelementptr inbounds i8, ptr %0, i64 8
  %27 = load ptr, ptr %26, align 8
  %28 = call ptr @LLVMGetIntrinsicDeclaration(ptr noundef %27, i32 noundef %25, ptr noundef nonnull %7, i64 noundef 1) #10
  %29 = getelementptr inbounds i8, ptr %0, i64 40
  %30 = load ptr, ptr %29, align 8
  %31 = call ptr @LLVMIntrinsicGetType(ptr noundef %30, i32 noundef %25, ptr noundef nonnull %7, i64 noundef 1) #10
  %32 = getelementptr inbounds i8, ptr %0, i64 64
  %33 = load ptr, ptr %32, align 8
  %34 = call ptr @LLVMBuildCall2(ptr noundef %33, ptr noundef %31, ptr noundef %28, ptr noundef nonnull %6, i32 noundef 2, ptr noundef nonnull @.str.3) #10
  %35 = call ptr @LLVMTypeOf(ptr noundef %34) #10
  %36 = call i32 @LLVMGetTypeKind(ptr noundef %35) #10
  %37 = icmp eq i32 %36, 13
  %38 = load ptr, ptr %32, align 8
  br i1 %37, label %39, label %55

39:                                               ; preds = %20
  %40 = load ptr, ptr @type_usz, align 8
  %41 = call fastcc ptr @type_lowering(ptr noundef %40)
  %42 = call ptr @llvm_get_type(ptr noundef nonnull %0, ptr noundef %41) #10
  %43 = load i32, ptr %41, align 8
  %44 = icmp eq i32 %43, 31
  br i1 %44, label %45, label %49

45:                                               ; preds = %39
  %46 = getelementptr inbounds i8, ptr %41, i64 8
  %47 = load ptr, ptr %46, align 8
  %48 = load i32, ptr %47, align 8
  br label %49

49:                                               ; preds = %45, %39
  %.062 = phi i32 [ %48, %45 ], [ %43, %39 ]
  %50 = add i32 %.062, -3
  %51 = icmp ult i32 %50, 5
  %52 = zext i1 %51 to i32
  %53 = call ptr @LLVMConstInt(ptr noundef %42, i64 noundef 0, i32 noundef %52) #10
  %54 = call ptr @LLVMBuildExtractElement(ptr noundef %38, ptr noundef %34, ptr noundef %53, ptr noundef nonnull @.str.3) #10
  br label %57

55:                                               ; preds = %20
  %56 = call ptr @LLVMBuildExtractValue(ptr noundef %38, ptr noundef %34, i32 noundef 0, ptr noundef nonnull @.str.3) #10
  br label %57

57:                                               ; preds = %55, %49
  %.064 = phi ptr [ %54, %49 ], [ %56, %55 ]
  %58 = call ptr @LLVMTypeOf(ptr noundef %34) #10
  %59 = call i32 @LLVMGetTypeKind(ptr noundef %58) #10
  %60 = icmp eq i32 %59, 13
  %61 = load ptr, ptr %32, align 8
  br i1 %60, label %62, label %78

62:                                               ; preds = %57
  %63 = load ptr, ptr @type_usz, align 8
  %64 = call fastcc ptr @type_lowering(ptr noundef %63)
  %65 = call ptr @llvm_get_type(ptr noundef nonnull %0, ptr noundef %64) #10
  %66 = load i32, ptr %64, align 8
  %67 = icmp eq i32 %66, 31
  br i1 %67, label %68, label %72

68:                                               ; preds = %62
  %69 = getelementptr inbounds i8, ptr %64, i64 8
  %70 = load ptr, ptr %69, align 8
  %71 = load i32, ptr %70, align 8
  br label %72

72:                                               ; preds = %68, %62
  %.063 = phi i32 [ %71, %68 ], [ %66, %62 ]
  %73 = add i32 %.063, -3
  %74 = icmp ult i32 %73, 5
  %75 = zext i1 %74 to i32
  %76 = call ptr @LLVMConstInt(ptr noundef %65, i64 noundef 1, i32 noundef %75) #10
  %77 = call ptr @LLVMBuildExtractElement(ptr noundef %61, ptr noundef %34, ptr noundef %76, ptr noundef nonnull @.str.3) #10
  br label %80

78:                                               ; preds = %57
  %79 = call ptr @LLVMBuildExtractValue(ptr noundef %61, ptr noundef %34, i32 noundef 1, ptr noundef nonnull @.str.3) #10
  br label %80

80:                                               ; preds = %78, %72
  %.065 = phi ptr [ %77, %72 ], [ %79, %78 ]
  call void @llvm_emit_panic_on_true(ptr noundef nonnull %0, ptr noundef %.065, ptr noundef nonnull @.str.202, i64 %4, ptr noundef null, ptr noundef null, ptr noundef null) #10
  br label %85

81:                                               ; preds = %5
  %82 = getelementptr inbounds i8, ptr %0, i64 64
  %83 = load ptr, ptr %82, align 8
  %84 = tail call ptr @LLVMBuildMul(ptr noundef %83, ptr noundef %2, ptr noundef %3, ptr noundef nonnull @.str.203) #10
  br label %85

85:                                               ; preds = %81, %80
  %.066 = phi ptr [ %.064, %80 ], [ %84, %81 ]
  ret ptr %.066
}